target datalayout = "e-m:e-p270:32:32-p271:32:32-p272:64:64-i64:64-i128:128-f80:128-n8:16:32:64-S128"
target triple = "x86_64-pc-linux-gnu"

%"struct.std::_Rb_tree_node_base" = type { i32, ptr, ptr, ptr }
%class.QString = type { ptr }
%class.QWidget = type { %class.QObject, %class.QPaintDevice, ptr }
%class.QObject = type { ptr, %class.QScopedPointer }
%class.QScopedPointer = type { ptr }
%class.QPaintDevice = type { ptr, i16, ptr }
%class.MultiViewer_Container = type { %class.Splitter, %class.MeshDocument, ptr, i32, ptr, %class.QList.61 }
%class.Splitter = type { %class.QSplitter }
%class.QSplitter = type { %class.QFrame }
%class.QFrame = type { %class.QWidget }
%class.MeshDocument = type { %class.QObject, %class.GLLogStream, %class.FilterScript, %"class.std::__cxx11::list.43", %"class.std::__cxx11::list.48", i32, i32, %class.QString, %class.QString, %class.MeshDocumentStateData, i8, ptr, ptr }
%class.GLLogStream = type { %class.QObject, i32, %class.QList.36, %class.QMultiMap }
%class.QList.36 = type { %union.anon.38 }
%union.anon.38 = type { %struct.QListData }
%struct.QListData = type { ptr }
%class.QMultiMap = type { %class.QMap.39 }
%class.QMap.39 = type { ptr }
%class.FilterScript = type { %class.QObject, %class.QList.40 }
%class.QList.40 = type { %union.anon.42 }
%union.anon.42 = type { %struct.QListData }
%"class.std::__cxx11::list.43" = type { %"class.std::__cxx11::_List_base.44" }
%"class.std::__cxx11::_List_base.44" = type { %"struct.std::__cxx11::_List_base<MeshModel, std::allocator<MeshModel>>::_List_impl" }
%"struct.std::__cxx11::_List_base<MeshModel, std::allocator<MeshModel>>::_List_impl" = type { %"struct.std::__detail::_List_node_header" }
%"struct.std::__detail::_List_node_header" = type { %"struct.std::__detail::_List_node_base", i64 }
%"struct.std::__detail::_List_node_base" = type { ptr, ptr }
%"class.std::__cxx11::list.48" = type { %"class.std::__cxx11::_List_base.49" }
%"class.std::__cxx11::_List_base.49" = type { %"struct.std::__cxx11::_List_base<RasterModel, std::allocator<RasterModel>>::_List_impl" }
%"struct.std::__cxx11::_List_base<RasterModel, std::allocator<RasterModel>>::_List_impl" = type { %"struct.std::__detail::_List_node_header" }
%class.MeshDocumentStateData = type { %class.QReadWriteLock, %class.QMap.55 }
%class.QReadWriteLock = type { %class.QAtomicPointer }
%class.QAtomicPointer = type { %class.QBasicAtomicPointer }
%class.QBasicAtomicPointer = type { %"struct.std::atomic.53" }
%"struct.std::atomic.53" = type { %"struct.std::__atomic_base.54" }
%"struct.std::__atomic_base.54" = type { ptr }
%class.QMap.55 = type { ptr }
%class.QList.61 = type { %union.anon.63 }
%union.anon.63 = type { %struct.QListData }
%class.MainWindow = type { %class.QMainWindow, %class.MainWindowSetting, %class.QNetworkAccessManager, i32, i32, i8, ptr, ptr, ptr, ptr, ptr, ptr, %class.RichParameterList, ptr, %class.QByteArray, %class.QDir, ptr, ptr, ptr, ptr, ptr, ptr, ptr, ptr, ptr, ptr, ptr, ptr, ptr, ptr, ptr, ptr, ptr, ptr, ptr, ptr, ptr, ptr, ptr, ptr, ptr, ptr, ptr, ptr, ptr, ptr, ptr, ptr, ptr, ptr, ptr, ptr, ptr, ptr, ptr, ptr, ptr, ptr, ptr, ptr, ptr, ptr, ptr, ptr, ptr, ptr, ptr, ptr, ptr, ptr, ptr, ptr, ptr, ptr, [9 x ptr], [9 x ptr], ptr, ptr, ptr, ptr, ptr, ptr, ptr, ptr, ptr, ptr, ptr, ptr, ptr, ptr, ptr, ptr, ptr, ptr, ptr, ptr, ptr, ptr, ptr, ptr, ptr, ptr, ptr, ptr, ptr, ptr, ptr, ptr, ptr, ptr, ptr, ptr, ptr, ptr, ptr, ptr, ptr, ptr, ptr, ptr, ptr, ptr, ptr, ptr, ptr, ptr, ptr, ptr, ptr, ptr, ptr, ptr, ptr, ptr, ptr, ptr, ptr, ptr, ptr, ptr, ptr, ptr }
%class.QMainWindow = type { %class.QWidget }
%class.MainWindowSetting = type <{ i64, i8, [7 x i8], i64, i64, i64, i32, i32, %class.QString, i8, i8, [6 x i8] }>
%class.QNetworkAccessManager = type { %class.QObject }
%class.RichParameterList = type { %"class.std::__cxx11::list" }
%"class.std::__cxx11::list" = type { %"class.std::__cxx11::_List_base" }
%"class.std::__cxx11::_List_base" = type { %"struct.std::__cxx11::_List_base<RichParameter *, std::allocator<RichParameter *>>::_List_impl" }
%"struct.std::__cxx11::_List_base<RichParameter *, std::allocator<RichParameter *>>::_List_impl" = type { %"struct.std::__detail::_List_node_header" }
%class.QByteArray = type { ptr }
%class.QDir = type { %class.QSharedDataPointer }
%class.QSharedDataPointer = type { ptr }
%class.DecoratorParamsTreeWidget = type { %class.QFrame, ptr, ptr, %class.RichParameterList, ptr, ptr, ptr, ptr }
%"struct.std::_Rb_tree_iterator.274" = type { ptr }
%"struct.std::pair.275" = type { %class.QString, ptr }
%"class.std::shared_ptr" = type { %"class.std::__shared_ptr" }
%"class.std::__shared_ptr" = type { ptr, %"class.std::__shared_count" }
%"class.std::__shared_count" = type { ptr }
%"struct.std::_Rb_tree_node.277" = type { %"struct.std::_Rb_tree_node_base", %"struct.__gnu_cxx::__aligned_membuf.278" }
%"struct.__gnu_cxx::__aligned_membuf.278" = type { [16 x i8] }

; Function Attrs: mustprogress nounwind uwtable
define linkonce_odr noundef ptr @_ZN9__gnu_cxx16__aligned_membufISt4pairIK7QStringP19RichParameterWidgetEE7_M_addrEv(ptr noundef nonnull align 8 dereferenceable(16) %0) #0 comdat align 2 {
  %2 = alloca ptr, align 8
  store ptr %0, ptr %2, align 8
  %3 = load ptr, ptr %2, align 8
  %4 = getelementptr inbounds %"struct.__gnu_cxx::__aligned_membuf.278", ptr %3, i32 0, i32 0
  ret ptr %4
}

; Function Attrs: mustprogress nounwind uwtable
define linkonce_odr noundef ptr @_ZNKSt12__shared_ptrI5ValueLN9__gnu_cxx12_Lock_policyE2EE3getEv(ptr noundef nonnull align 8 dereferenceable(16) %0) #0 comdat align 2 {
  %2 = alloca ptr, align 8
  store ptr %0, ptr %2, align 8
  %3 = load ptr, ptr %2, align 8
  %4 = getelementptr inbounds %"class.std::__shared_ptr", ptr %3, i32 0, i32 0
  %5 = load ptr, ptr %4, align 8
  ret ptr %5
}

; Function Attrs: mustprogress nounwind uwtable
define linkonce_odr noundef ptr @_ZN9__gnu_cxx16__aligned_membufISt4pairIK7QStringP19RichParameterWidgetEE6_M_ptrEv(ptr noundef nonnull align 8 dereferenceable(16) %0) #0 comdat align 2 {
  %2 = alloca ptr, align 8
  store ptr %0, ptr %2, align 8
  %3 = load ptr, ptr %2, align 8
  %4 = call noundef ptr @_ZN9__gnu_cxx16__aligned_membufISt4pairIK7QStringP19RichParameterWidgetEE7_M_addrEv(ptr noundef nonnull align 8 dereferenceable(16) %3) #4
  ret ptr %4
}

; Function Attrs: mustprogress nounwind uwtable
define linkonce_odr noundef ptr @_ZNK10MainWindow20currentViewContainerEv(ptr noundef nonnull align 8 dereferenceable(1376) %0) #0 comdat align 2 {
  %2 = alloca ptr, align 8
  store ptr %0, ptr %2, align 8
  %3 = load ptr, ptr %2, align 8
  %4 = getelementptr inbounds %class.MainWindow, ptr %3, i32 0, i32 141
  %5 = load ptr, ptr %4, align 8
  ret ptr %5
}

; Function Attrs: mustprogress nounwind uwtable
define linkonce_odr noundef ptr @_ZNKSt19__shared_ptr_accessI5ValueLN9__gnu_cxx12_Lock_policyE2ELb0ELb0EE6_M_getEv(ptr noundef nonnull align 1 dereferenceable(1) %0) #0 comdat align 2 {
  %2 = alloca ptr, align 8
  store ptr %0, ptr %2, align 8
  %3 = load ptr, ptr %2, align 8
  %4 = call noundef ptr @_ZNKSt12__shared_ptrI5ValueLN9__gnu_cxx12_Lock_policyE2EE3getEv(ptr noundef nonnull align 8 dereferenceable(16) %3) #4
  ret ptr %4
}

; Function Attrs: noreturn nounwind uwtable
define linkonce_odr hidden void @__clang_call_terminate(ptr noundef %0) #9 comdat {
  %2 = call ptr @__cxa_begin_catch(ptr %0) #4
  call void @_ZSt9terminatev() #18
  unreachable
}

; Function Attrs: mustprogress nounwind uwtable
define linkonce_odr noundef ptr @_ZNSt13_Rb_tree_nodeISt4pairIK7QStringP19RichParameterWidgetEE9_M_valptrEv(ptr noundef nonnull align 8 dereferenceable(48) %0) #0 comdat align 2 {
  %2 = alloca ptr, align 8
  store ptr %0, ptr %2, align 8
  %3 = load ptr, ptr %2, align 8
  %4 = getelementptr inbounds %"struct.std::_Rb_tree_node.277", ptr %3, i32 0, i32 1
  %5 = call noundef ptr @_ZN9__gnu_cxx16__aligned_membufISt4pairIK7QStringP19RichParameterWidgetEE6_M_ptrEv(ptr noundef nonnull align 8 dereferenceable(16) %4) #4
  ret ptr %5
}

; Function Attrs: mustprogress nounwind uwtable
define linkonce_odr noundef ptr @_ZNK10MainWindow3GLAEv(ptr noundef nonnull align 8 dereferenceable(1376) %0) #0 comdat align 2 {
  %2 = alloca ptr, align 8
  %3 = alloca ptr, align 8
  %4 = alloca ptr, align 8
  store ptr %0, ptr %3, align 8
  %5 = load ptr, ptr %3, align 8
  %6 = call noundef ptr @_ZNK10MainWindow20currentViewContainerEv(ptr noundef nonnull align 8 dereferenceable(1376) %5)
  store ptr %6, ptr %4, align 8
  %7 = load ptr, ptr %4, align 8
  %8 = icmp ne ptr %7, null
  br i1 %8, label %10, label %9

9:                                                ; preds = %1
  store ptr null, ptr %2, align 8
  br label %14

10:                                               ; preds = %1
  %11 = load ptr, ptr %4, align 8
  %12 = getelementptr inbounds %class.MultiViewer_Container, ptr %11, i32 0, i32 4
  %13 = load ptr, ptr %12, align 8
  store ptr %13, ptr %2, align 8
  br label %14

14:                                               ; preds = %10, %9
  %15 = load ptr, ptr %2, align 8
  ret ptr %15
}

; Function Attrs: mustprogress nounwind uwtable
define linkonce_odr noundef nonnull align 8 dereferenceable(8) ptr @_ZNSt17_Rb_tree_iteratorISt4pairIK7QStringP19RichParameterWidgetEEppEv(ptr noundef nonnull align 8 dereferenceable(8) %0) #0 comdat align 2 {
  %2 = alloca ptr, align 8
  store ptr %0, ptr %2, align 8
  %3 = load ptr, ptr %2, align 8
  %4 = getelementptr inbounds %"struct.std::_Rb_tree_iterator.274", ptr %3, i32 0, i32 0
  %5 = load ptr, ptr %4, align 8
  %6 = call noundef ptr @_ZSt18_Rb_tree_incrementPSt18_Rb_tree_node_base(ptr noundef %5) #15
  %7 = getelementptr inbounds %"struct.std::_Rb_tree_iterator.274", ptr %3, i32 0, i32 0
  store ptr %6, ptr %7, align 8
  ret ptr %3
}

; Function Attrs: mustprogress nounwind uwtable
define linkonce_odr noundef nonnull align 8 dereferenceable(8) ptr @_ZNKSt19__shared_ptr_accessI5ValueLN9__gnu_cxx12_Lock_policyE2ELb0ELb0EEdeEv(ptr noundef nonnull align 1 dereferenceable(1) %0) #0 comdat align 2 {
  %2 = alloca ptr, align 8
  store ptr %0, ptr %2, align 8
  %3 = load ptr, ptr %2, align 8
  br label %4

4:                                                ; preds = %1
  br label %5

5:                                                ; preds = %4
  br label %6

6:                                                ; preds = %5
  %7 = call noundef ptr @_ZNKSt19__shared_ptr_accessI5ValueLN9__gnu_cxx12_Lock_policyE2ELb0ELb0EE6_M_getEv(ptr noundef nonnull align 1 dereferenceable(1) %3) #4
  ret ptr %7
}

; Function Attrs: mustprogress nounwind uwtable
define linkonce_odr noundef nonnull align 8 dereferenceable(16) ptr @_ZNKSt17_Rb_tree_iteratorISt4pairIK7QStringP19RichParameterWidgetEEdeEv(ptr noundef nonnull align 8 dereferenceable(8) %0) #0 comdat align 2 personality ptr @__gxx_personality_v0 {
  %2 = alloca ptr, align 8
  store ptr %0, ptr %2, align 8
  %3 = load ptr, ptr %2, align 8
  %4 = getelementptr inbounds %"struct.std::_Rb_tree_iterator.274", ptr %3, i32 0, i32 0
  %5 = load ptr, ptr %4, align 8
  %6 = invoke noundef ptr @_ZNSt13_Rb_tree_nodeISt4pairIK7QStringP19RichParameterWidgetEE9_M_valptrEv(ptr noundef nonnull align 8 dereferenceable(48) %5)
          to label %7 unwind label %8

7:                                                ; preds = %1
  ret ptr %6

8:                                                ; preds = %1
  %9 = landingpad { ptr, i32 }
          catch ptr null
  %10 = extractvalue { ptr, i32 } %9, 0
  call void @__clang_call_terminate(ptr %10) #18
  unreachable
}

; Function Attrs: mustprogress nounwind uwtable
define linkonce_odr noundef zeroext i1 @_ZStneRKSt17_Rb_tree_iteratorISt4pairIK7QStringP19RichParameterWidgetEES8_(ptr noundef nonnull align 8 dereferenceable(8) %0, ptr noundef nonnull align 8 dereferenceable(8) %1) #0 comdat {
  %3 = alloca ptr, align 8
  %4 = alloca ptr, align 8
  store ptr %0, ptr %3, align 8
  store ptr %1, ptr %4, align 8
  %5 = load ptr, ptr %3, align 8
  %6 = getelementptr inbounds %"struct.std::_Rb_tree_iterator.274", ptr %5, i32 0, i32 0
  %7 = load ptr, ptr %6, align 8
  %8 = load ptr, ptr %4, align 8
  %9 = getelementptr inbounds %"struct.std::_Rb_tree_iterator.274", ptr %8, i32 0, i32 0
  %10 = load ptr, ptr %9, align 8
  %11 = icmp ne ptr %7, %10
  ret i1 %11
}

; Function Attrs: mustprogress nounwind uwtable
define linkonce_odr noundef nonnull align 8 dereferenceable(24) ptr @_ZN10MainWindow17currentGlobalParsEv(ptr noundef nonnull align 8 dereferenceable(1376) %0) #0 comdat align 2 {
  %2 = alloca ptr, align 8
  store ptr %0, ptr %2, align 8
  %3 = load ptr, ptr %2, align 8
  %4 = getelementptr inbounds %class.MainWindow, ptr %3, i32 0, i32 12
  ret ptr %4
}

; Function Attrs: mustprogress uwtable
define void @_ZN25DecoratorParamsTreeWidget5applyEv(ptr noundef nonnull align 8 dereferenceable(120) %0) #5 align 2 personality ptr @__gxx_personality_v0 {
  %2 = alloca ptr, align 8
  %3 = alloca ptr, align 8
  %4 = alloca ptr, align 8
  %5 = alloca %"struct.std::_Rb_tree_iterator.274", align 8
  %6 = alloca %"struct.std::_Rb_tree_iterator.274", align 8
  %7 = alloca ptr, align 8
  %8 = alloca %"class.std::shared_ptr", align 8
  %9 = alloca ptr, align 8
  %10 = alloca i32, align 4
  store ptr %0, ptr %2, align 8
  %11 = load ptr, ptr %2, align 8
  %12 = getelementptr inbounds %class.DecoratorParamsTreeWidget, ptr %11, i32 0, i32 1
  %13 = load ptr, ptr %12, align 8
  %14 = call noundef nonnull align 8 dereferenceable(24) ptr @_ZN10MainWindow17currentGlobalParsEv(ptr noundef nonnull align 8 dereferenceable(1376) %13)
  store ptr %14, ptr %3, align 8
  %15 = getelementptr inbounds %class.DecoratorParamsTreeWidget, ptr %11, i32 0, i32 2
  %16 = load ptr, ptr %15, align 8
  store ptr %16, ptr %4, align 8
  %17 = load ptr, ptr %4, align 8
  %18 = call ptr @_ZN22RichParameterListFrame5beginEv(ptr noundef nonnull align 8 dereferenceable(200) %17)
  %19 = getelementptr inbounds %"struct.std::_Rb_tree_iterator.274", ptr %5, i32 0, i32 0
  store ptr %18, ptr %19, align 8
  %20 = load ptr, ptr %4, align 8
  %21 = call ptr @_ZN22RichParameterListFrame3endEv(ptr noundef nonnull align 8 dereferenceable(200) %20)
  %22 = getelementptr inbounds %"struct.std::_Rb_tree_iterator.274", ptr %6, i32 0, i32 0
  store ptr %21, ptr %22, align 8
  br label %23

23:                                               ; preds = %38, %1
  %24 = call noundef zeroext i1 @_ZStneRKSt17_Rb_tree_iteratorISt4pairIK7QStringP19RichParameterWidgetEES8_(ptr noundef nonnull align 8 dereferenceable(8) %5, ptr noundef nonnull align 8 dereferenceable(8) %6) #4
  br i1 %24, label %25, label %44

25:                                               ; preds = %23
  %26 = call noundef nonnull align 8 dereferenceable(16) ptr @_ZNKSt17_Rb_tree_iteratorISt4pairIK7QStringP19RichParameterWidgetEEdeEv(ptr noundef nonnull align 8 dereferenceable(8) %5) #4
  store ptr %26, ptr %7, align 8
  %27 = load ptr, ptr %3, align 8
  %28 = load ptr, ptr %7, align 8
  %29 = getelementptr inbounds %"struct.std::pair.275", ptr %28, i32 0, i32 0
  %30 = load ptr, ptr %7, align 8
  %31 = getelementptr inbounds %"struct.std::pair.275", ptr %30, i32 0, i32 1
  %32 = load ptr, ptr %31, align 8
  %33 = load ptr, ptr %32, align 8
  %34 = getelementptr inbounds ptr, ptr %33, i64 52
  %35 = load ptr, ptr %34, align 8
  call void %35(ptr dead_on_unwind writable sret(%"class.std::shared_ptr") align 8 %8, ptr noundef nonnull align 8 dereferenceable(99) %32)
  %36 = call noundef nonnull align 8 dereferenceable(8) ptr @_ZNKSt19__shared_ptr_accessI5ValueLN9__gnu_cxx12_Lock_policyE2ELb0ELb0EEdeEv(ptr noundef nonnull align 1 dereferenceable(1) %8) #4
  invoke void @_ZN17RichParameterList8setValueERK7QStringRK5Value(ptr noundef nonnull align 8 dereferenceable(24) %27, ptr noundef nonnull align 8 dereferenceable(8) %29, ptr noundef nonnull align 8 dereferenceable(8) %36)
          to label %37 unwind label %40

37:                                               ; preds = %25
  call void @_ZNSt10shared_ptrI5ValueED2Ev(ptr noundef nonnull align 8 dereferenceable(16) %8) #4
  br label %38

38:                                               ; preds = %37
  %39 = call noundef nonnull align 8 dereferenceable(8) ptr @_ZNSt17_Rb_tree_iteratorISt4pairIK7QStringP19RichParameterWidgetEEppEv(ptr noundef nonnull align 8 dereferenceable(8) %5) #4
  br label %23

40:                                               ; preds = %25
  %41 = landingpad { ptr, i32 }
          cleanup
  %42 = extractvalue { ptr, i32 } %41, 0
  store ptr %42, ptr %9, align 8
  %43 = extractvalue { ptr, i32 } %41, 1
  store i32 %43, ptr %10, align 4
  call void @_ZNSt10shared_ptrI5ValueED2Ev(ptr noundef nonnull align 8 dereferenceable(16) %8) #4
  br label %56

44:                                               ; preds = %23
  %45 = getelementptr inbounds %class.DecoratorParamsTreeWidget, ptr %11, i32 0, i32 1
  %46 = load ptr, ptr %45, align 8
  call void @_ZN10MainWindow20updateCustomSettingsEv(ptr noundef nonnull align 8 dereferenceable(1376) %46)
  %47 = getelementptr inbounds %class.DecoratorParamsTreeWidget, ptr %11, i32 0, i32 1
  %48 = load ptr, ptr %47, align 8
  %49 = call noundef ptr @_ZNK10MainWindow3GLAEv(ptr noundef nonnull align 8 dereferenceable(1376) %48)
  %50 = icmp ne ptr %49, null
  br i1 %50, label %51, label %55

51:                                               ; preds = %44
  %52 = getelementptr inbounds %class.DecoratorParamsTreeWidget, ptr %11, i32 0, i32 1
  %53 = load ptr, ptr %52, align 8
  %54 = call noundef ptr @_ZNK10MainWindow3GLAEv(ptr noundef nonnull align 8 dereferenceable(1376) %53)
  call void @_ZN6GLArea19updateAllDecoratorsEv(ptr noundef nonnull align 8 dereferenceable(1676) %54)
  br label %55

55:                                               ; preds = %51, %44
  ret void

56:                                               ; preds = %40
  %57 = load ptr, ptr %9, align 8
  %58 = load i32, ptr %10, align 4
  %59 = insertvalue { ptr, i32 } poison, ptr %57, 0
  %60 = insertvalue { ptr, i32 } %59, i32 %58, 1
  resume { ptr, i32 } %60
}