; Function Attrs: mustprogress uwtable
define void @_ZN25DecoratorParamsTreeWidget5applyEv(ptr nocapture noundef nonnull readonly align 8 dereferenceable(120) %0) local_unnamed_addr #9 align 2 personality ptr @__gxx_personality_v0 {
  %2 = alloca %"class.std::shared_ptr", align 8
  %3 = getelementptr inbounds i8, ptr %0, i64 48
  %4 = load ptr, ptr %3, align 8
  %5 = getelementptr inbounds i8, ptr %4, i64 192
  %6 = getelementptr inbounds i8, ptr %0, i64 56
  %7 = load ptr, ptr %6, align 8
  %8 = tail call ptr @_ZN22RichParameterListFrame5beginEv(ptr noundef nonnull align 8 dereferenceable(200) %7)
  %9 = tail call ptr @_ZN22RichParameterListFrame3endEv(ptr noundef nonnull align 8 dereferenceable(200) %7)
  %.not1516 = icmp eq ptr %8, %9
  br i1 %.not1516, label %._crit_edge, label %.lr.ph

.lr.ph:                                           ; preds = %1
  %10 = getelementptr inbounds i8, ptr %2, i64 8
  br label %11

11:                                               ; preds = %.lr.ph, %_ZNSt10shared_ptrI5ValueED2Ev.exit
  %.sroa.010.017 = phi ptr [ %8, %.lr.ph ], [ %55, %_ZNSt10shared_ptrI5ValueED2Ev.exit ]
  %12 = getelementptr inbounds i8, ptr %.sroa.010.017, i64 32
  %13 = getelementptr inbounds i8, ptr %.sroa.010.017, i64 40
  %14 = load ptr, ptr %13, align 8
  %15 = load ptr, ptr %14, align 8
  %16 = getelementptr inbounds i8, ptr %15, i64 416
  %17 = load ptr, ptr %16, align 8
  call void %17(ptr dead_on_unwind nonnull writable sret(%"class.std::shared_ptr") align 8 %2, ptr noundef nonnull align 8 dereferenceable(99) %14)
  %18 = load ptr, ptr %2, align 8
  invoke void @_ZN17RichParameterList8setValueERK7QStringRK5Value(ptr noundef nonnull align 8 dereferenceable(24) %5, ptr noundef nonnull align 8 dereferenceable(8) %12, ptr noundef nonnull align 8 dereferenceable(8) %18)
          to label %19 unwind label %56

19:                                               ; preds = %11
  %20 = load ptr, ptr %10, align 8
  %.not.i.i.i = icmp eq ptr %20, null
  br i1 %.not.i.i.i, label %_ZNSt10shared_ptrI5ValueED2Ev.exit, label %21

21:                                               ; preds = %19
  %22 = getelementptr inbounds i8, ptr %20, i64 8
  %23 = load atomic i64, ptr %22 acquire, align 8
  %24 = icmp eq i64 %23, 4294967297
  %25 = trunc i64 %23 to i32
  br i1 %24, label %26, label %31

26:                                               ; preds = %21
  store i32 0, ptr %22, align 8
  %27 = getelementptr inbounds i8, ptr %20, i64 12
  store i32 0, ptr %27, align 4
  %28 = load ptr, ptr %20, align 8
  %29 = getelementptr inbounds i8, ptr %28, i64 16
  %30 = load ptr, ptr %29, align 8
  call void %30(ptr noundef nonnull align 8 dereferenceable(16) %20) #22
  br label %_ZNSt16_Sp_counted_baseILN9__gnu_cxx12_Lock_policyE2EE24_M_release_last_use_coldEv.exit.sink.split.i.i.i.i

31:                                               ; preds = %21
  %32 = load i8, ptr @__libc_single_threaded, align 1
  %.not.i.i.i.i = icmp eq i8 %32, 0
  br i1 %.not.i.i.i.i, label %35, label %33

33:                                               ; preds = %31
  %34 = add nsw i32 %25, -1
  store i32 %34, ptr %22, align 4
  br label %37

35:                                               ; preds = %31
  %36 = atomicrmw volatile add ptr %22, i32 -1 acq_rel, align 4
  br label %37

37:                                               ; preds = %35, %33
  %.0.i.i.i.i = phi i32 [ %25, %33 ], [ %36, %35 ]
  %38 = icmp eq i32 %.0.i.i.i.i, 1
  br i1 %38, label %39, label %_ZNSt10shared_ptrI5ValueED2Ev.exit

39:                                               ; preds = %37
  %40 = load ptr, ptr %20, align 8
  %41 = getelementptr inbounds i8, ptr %40, i64 16
  %42 = load ptr, ptr %41, align 8
  call void %42(ptr noundef nonnull align 8 dereferenceable(16) %20) #22
  %43 = getelementptr inbounds i8, ptr %20, i64 12
  %44 = load i8, ptr @__libc_single_threaded, align 1
  %.not.i.i.i.i.i.i = icmp eq i8 %44, 0
  br i1 %.not.i.i.i.i.i.i, label %48, label %45

45:                                               ; preds = %39
  %46 = load i32, ptr %43, align 4
  %47 = add nsw i32 %46, -1
  store i32 %47, ptr %43, align 4
  br label %50

48:                                               ; preds = %39
  %49 = atomicrmw volatile add ptr %43, i32 -1 acq_rel, align 4
  br label %50

50:                                               ; preds = %48, %45
  %.0.i.i.i.i.i.i = phi i32 [ %46, %45 ], [ %49, %48 ]
  %51 = icmp eq i32 %.0.i.i.i.i.i.i, 1
  br i1 %51, label %_ZNSt16_Sp_counted_baseILN9__gnu_cxx12_Lock_policyE2EE24_M_release_last_use_coldEv.exit.sink.split.i.i.i.i, label %_ZNSt10shared_ptrI5ValueED2Ev.exit

_ZNSt16_Sp_counted_baseILN9__gnu_cxx12_Lock_policyE2EE24_M_release_last_use_coldEv.exit.sink.split.i.i.i.i: ; preds = %50, %26
  %52 = load ptr, ptr %20, align 8
  %53 = getelementptr inbounds i8, ptr %52, i64 24
  %54 = load ptr, ptr %53, align 8
  call void %54(ptr noundef nonnull align 8 dereferenceable(16) %20) #22
  br label %_ZNSt10shared_ptrI5ValueED2Ev.exit

_ZNSt10shared_ptrI5ValueED2Ev.exit:               ; preds = %19, %37, %50, %_ZNSt16_Sp_counted_baseILN9__gnu_cxx12_Lock_policyE2EE24_M_release_last_use_coldEv.exit.sink.split.i.i.i.i
  %55 = call noundef ptr @_ZSt18_Rb_tree_incrementPSt18_Rb_tree_node_base(ptr noundef nonnull %.sroa.010.017) #25
  %.not15 = icmp eq ptr %55, %9
  br i1 %.not15, label %._crit_edge, label %11

56:                                               ; preds = %11
  %57 = landingpad { ptr, i32 }
          cleanup
  call void @_ZNSt10shared_ptrI5ValueED2Ev(ptr noundef nonnull align 8 dereferenceable(16) %2) #22
  resume { ptr, i32 } %57

._crit_edge:                                      ; preds = %_ZNSt10shared_ptrI5ValueED2Ev.exit, %1
  %58 = load ptr, ptr %3, align 8
  call void @_ZN10MainWindow20updateCustomSettingsEv(ptr noundef nonnull align 8 dereferenceable(1376) %58)
  %59 = load ptr, ptr %3, align 8
  %60 = getelementptr inbounds i8, ptr %59, i64 1368
  %61 = load ptr, ptr %60, align 8
  %.not.i = icmp eq ptr %61, null
  br i1 %.not.i, label %_ZNK10MainWindow3GLAEv.exit.thread, label %_ZNK10MainWindow3GLAEv.exit

_ZNK10MainWindow3GLAEv.exit:                      ; preds = %._crit_edge
  %62 = getelementptr inbounds i8, ptr %61, i64 256
  %63 = load ptr, ptr %62, align 8
  %.not = icmp eq ptr %63, null
  br i1 %.not, label %_ZNK10MainWindow3GLAEv.exit.thread, label %_ZNK10MainWindow3GLAEv.exit9

_ZNK10MainWindow3GLAEv.exit9:                     ; preds = %_ZNK10MainWindow3GLAEv.exit
  call void @_ZN6GLArea19updateAllDecoratorsEv(ptr noundef nonnull align 8 dereferenceable(1676) %63)
  br label %_ZNK10MainWindow3GLAEv.exit.thread

_ZNK10MainWindow3GLAEv.exit.thread:               ; preds = %._crit_edge, %_ZNK10MainWindow3GLAEv.exit9, %_ZNK10MainWindow3GLAEv.exit
  ret void
}